; Function Attrs: mustprogress nounwind uwtable
define internal void @_ZN9grpc_core12_GLOBAL__N_130NativeClientChannelDNSResolverD0Ev(ptr noundef nonnull align 8 dereferenceable(536) %this) unnamed_addr #7 align 2 personality ptr @__gxx_personality_v0 {
entry:
  store ptr getelementptr inbounds ({ [10 x ptr] }, ptr @_ZTVN9grpc_core12_GLOBAL__N_130NativeClientChannelDNSResolverE, i64 0, i32 0, i64 2), ptr %this, align 8
  %0 = load atomic i8, ptr getelementptr inbounds (%"class.grpc_core::TraceFlag", ptr @_ZN9grpc_core12_GLOBAL__N_123grpc_trace_dns_resolverE, i64 0, i32 2, i32 0, i32 0) monotonic, align 8
  %1 = and i8 %0, 1
  %tobool.i.i.i.not.i = icmp eq i8 %1, 0
  br i1 %tobool.i.i.i.not.i, label %_ZN9grpc_core12_GLOBAL__N_130NativeClientChannelDNSResolverD2Ev.exit, label %if.then.i

if.then.i:                                        ; preds = %entry
  invoke void (ptr, i32, i32, ptr, ...) @gpr_log(ptr noundef nonnull @.str.3, i32 noundef 103, i32 noundef 0, ptr noundef nonnull @.str.9, ptr noundef nonnull %this)
          to label %_ZN9grpc_core12_GLOBAL__N_130NativeClientChannelDNSResolverD2Ev.exit unwind label %terminate.lpad.i

terminate.lpad.i:                                 ; preds = %if.then.i
  %2 = landingpad { ptr, i32 }
          catch ptr null
  %3 = extractvalue { ptr, i32 } %2, 0
  tail call void @__clang_call_terminate(ptr %3) #19
  unreachable

_ZN9grpc_core12_GLOBAL__N_130NativeClientChannelDNSResolverD2Ev.exit: ; preds = %entry, %if.then.i
  tail call void @_ZN9grpc_core15PollingResolverD2Ev(ptr noundef nonnull align 8 dereferenceable(536) %this) #17
  tail call void @_ZdlPv(ptr noundef nonnull %this) #18
  ret void
}